target datalayout = "e-m:e-p270:32:32-p271:32:32-p272:64:64-i64:64-i128:128-f80:128-n8:16:32:64-S128"
target triple = "x86_64-pc-linux-gnu"

%struct.luaL_Buffer = type { ptr, i64, i64, ptr, %union.anon }
%union.anon = type { double, [1016 x i8] }

@.str.37 = private unnamed_addr constant [1 x i8] zeroinitializer, align 1
@.str.58 = private unnamed_addr constant [27 x i8] c"resulting string too large\00", align 1

; Function Attrs: nounwind uwtable
define internal i32 @str_rep(ptr noundef %0) #0 {
  %2 = alloca i32, align 4
  %3 = alloca ptr, align 8
  %4 = alloca i64, align 8
  %5 = alloca i64, align 8
  %6 = alloca ptr, align 8
  %7 = alloca i64, align 8
  %8 = alloca ptr, align 8
  %9 = alloca i32, align 4
  %10 = alloca i64, align 8
  %11 = alloca %struct.luaL_Buffer, align 8
  %12 = alloca ptr, align 8
  store ptr %0, ptr %3, align 8, !tbaa !4
  call void @llvm.lifetime.start.p0(i64 8, ptr %4) #11
  call void @llvm.lifetime.start.p0(i64 8, ptr %5) #11
  call void @llvm.lifetime.start.p0(i64 8, ptr %6) #11
  %13 = load ptr, ptr %3, align 8, !tbaa !4
  %14 = call ptr @luaL_checklstring(ptr noundef %13, i32 noundef 1, ptr noundef %4)
  store ptr %14, ptr %6, align 8, !tbaa !9
  call void @llvm.lifetime.start.p0(i64 8, ptr %7) #11
  %15 = load ptr, ptr %3, align 8, !tbaa !4
  %16 = call i64 @luaL_checkinteger(ptr noundef %15, i32 noundef 2)
  store i64 %16, ptr %7, align 8, !tbaa !11
  call void @llvm.lifetime.start.p0(i64 8, ptr %8) #11
  %17 = load ptr, ptr %3, align 8, !tbaa !4
  %18 = call ptr @luaL_optlstring(ptr noundef %17, i32 noundef 3, ptr noundef @.str.37, ptr noundef %5)
  store ptr %18, ptr %8, align 8, !tbaa !9
  %19 = load i64, ptr %7, align 8, !tbaa !11
  %20 = icmp sle i64 %19, 0
  br i1 %20, label %21, label %24

21:                                               ; preds = %1
  %22 = load ptr, ptr %3, align 8, !tbaa !4
  %23 = call ptr @lua_pushstring(ptr noundef %22, ptr noundef @.str.37)
  br label %89

24:                                               ; preds = %1
  %25 = load i64, ptr %4, align 8, !tbaa !13
  %26 = load i64, ptr %5, align 8, !tbaa !13
  %27 = add i64 %25, %26
  %28 = load i64, ptr %4, align 8, !tbaa !13
  %29 = icmp ult i64 %27, %28
  br i1 %29, label %37, label %30

30:                                               ; preds = %24
  %31 = load i64, ptr %4, align 8, !tbaa !13
  %32 = load i64, ptr %5, align 8, !tbaa !13
  %33 = add i64 %31, %32
  %34 = load i64, ptr %7, align 8, !tbaa !11
  %35 = udiv i64 9223372036854775807, %34
  %36 = icmp ugt i64 %33, %35
  br label %37

37:                                               ; preds = %30, %24
  %38 = phi i1 [ true, %24 ], [ %36, %30 ]
  %39 = zext i1 %38 to i32
  %40 = icmp ne i32 %39, 0
  %41 = zext i1 %40 to i32
  %42 = sext i32 %41 to i64
  %43 = call i64 @llvm.expect.i64(i64 %42, i64 0)
  %44 = icmp ne i64 %43, 0
  br i1 %44, label %45, label %48

45:                                               ; preds = %37
  %46 = load ptr, ptr %3, align 8, !tbaa !4
  %47 = call i32 (ptr, ptr, ...) @luaL_error(ptr noundef %46, ptr noundef @.str.58)
  store i32 %47, ptr %2, align 4
  store i32 1, ptr %9, align 4
  br label %90

48:                                               ; preds = %37
  call void @llvm.lifetime.start.p0(i64 8, ptr %10) #11
  %49 = load i64, ptr %7, align 8, !tbaa !11
  %50 = load i64, ptr %4, align 8, !tbaa !13
  %51 = load i64, ptr %5, align 8, !tbaa !13
  %52 = add i64 %50, %51
  %53 = mul i64 %49, %52
  %54 = load i64, ptr %5, align 8, !tbaa !13
  %55 = sub i64 %53, %54
  store i64 %55, ptr %10, align 8, !tbaa !13
  call void @llvm.lifetime.start.p0(i64 1056, ptr %11) #11
  call void @llvm.lifetime.start.p0(i64 8, ptr %12) #11
  %56 = load ptr, ptr %3, align 8, !tbaa !4
  %57 = load i64, ptr %10, align 8, !tbaa !13
  %58 = call ptr @luaL_buffinitsize(ptr noundef %56, ptr noundef %11, i64 noundef %57)
  store ptr %58, ptr %12, align 8, !tbaa !9
  br label %59

59:                                               ; preds = %81, %48
  %60 = load i64, ptr %7, align 8, !tbaa !11
  %61 = add nsw i64 %60, -1
  store i64 %61, ptr %7, align 8, !tbaa !11
  %62 = icmp sgt i64 %60, 1
  br i1 %62, label %63, label %82

63:                                               ; preds = %59
  %64 = load ptr, ptr %12, align 8, !tbaa !9
  %65 = load ptr, ptr %6, align 8, !tbaa !9
  %66 = load i64, ptr %4, align 8, !tbaa !13
  %67 = mul i64 %66, 1
  call void @llvm.memcpy.p0.p0.i64(ptr align 1 %64, ptr align 1 %65, i64 %67, i1 false)
  %68 = load i64, ptr %4, align 8, !tbaa !13
  %69 = load ptr, ptr %12, align 8, !tbaa !9
  %70 = getelementptr inbounds nuw i8, ptr %69, i64 %68
  store ptr %70, ptr %12, align 8, !tbaa !9
  %71 = load i64, ptr %5, align 8, !tbaa !13
  %72 = icmp ugt i64 %71, 0
  br i1 %72, label %73, label %81

73:                                               ; preds = %63
  %74 = load ptr, ptr %12, align 8, !tbaa !9
  %75 = load ptr, ptr %8, align 8, !tbaa !9
  %76 = load i64, ptr %5, align 8, !tbaa !13
  %77 = mul i64 %76, 1
  call void @llvm.memcpy.p0.p0.i64(ptr align 1 %74, ptr align 1 %75, i64 %77, i1 false)
  %78 = load i64, ptr %5, align 8, !tbaa !13
  %79 = load ptr, ptr %12, align 8, !tbaa !9
  %80 = getelementptr inbounds nuw i8, ptr %79, i64 %78
  store ptr %80, ptr %12, align 8, !tbaa !9
  br label %81

81:                                               ; preds = %73, %63
  br label %59

82:                                               ; preds = %59
  %83 = load ptr, ptr %12, align 8, !tbaa !9
  %84 = load ptr, ptr %6, align 8, !tbaa !9
  %85 = load i64, ptr %4, align 8, !tbaa !13
  %86 = mul i64 %85, 1
  call void @llvm.memcpy.p0.p0.i64(ptr align 1 %83, ptr align 1 %84, i64 %86, i1 false)
  %87 = load i64, ptr %10, align 8, !tbaa !13
  call void @luaL_pushresultsize(ptr noundef %11, i64 noundef %87)
  call void @llvm.lifetime.end.p0(i64 8, ptr %12) #11
  call void @llvm.lifetime.end.p0(i64 1056, ptr %11) #11
  call void @llvm.lifetime.end.p0(i64 8, ptr %10) #11
  br label %88

88:                                               ; preds = %82
  br label %89

89:                                               ; preds = %88, %21
  store i32 1, ptr %2, align 4
  store i32 1, ptr %9, align 4
  br label %90

90:                                               ; preds = %89, %45
  call void @llvm.lifetime.end.p0(i64 8, ptr %8) #11
  call void @llvm.lifetime.end.p0(i64 8, ptr %7) #11
  call void @llvm.lifetime.end.p0(i64 8, ptr %6) #11
  call void @llvm.lifetime.end.p0(i64 8, ptr %5) #11
  call void @llvm.lifetime.end.p0(i64 8, ptr %4) #11
  %91 = load i32, ptr %2, align 4
  ret i32 %91
}