; Function Attrs: nounwind uwtable
define internal i32 @str_rep(ptr noundef %0) #0 {
  %2 = alloca i64, align 8
  %3 = alloca i64, align 8
  %4 = alloca %struct.luaL_Buffer, align 8
  call void @llvm.lifetime.start.p0(i64 8, ptr nonnull %2) #12
  call void @llvm.lifetime.start.p0(i64 8, ptr nonnull %3) #12
  %5 = call ptr @luaL_checklstring(ptr noundef %0, i32 noundef 1, ptr noundef nonnull %2) #12
  %6 = call i64 @luaL_checkinteger(ptr noundef %0, i32 noundef 2) #12
  %7 = call ptr @luaL_optlstring(ptr noundef %0, i32 noundef 3, ptr noundef nonnull @.str.37, ptr noundef nonnull %3) #12
  %8 = icmp slt i64 %6, 1
  br i1 %8, label %9, label %11

9:                                                ; preds = %1
  %10 = call ptr @lua_pushstring(ptr noundef %0, ptr noundef nonnull @.str.37) #12
  br label %35

11:                                               ; preds = %1
  %12 = load i64, ptr %2, align 8, !tbaa !4
  %13 = load i64, ptr %3, align 8, !tbaa !4
  %14 = add i64 %13, %12
  %15 = icmp ult i64 %14, %12
  br i1 %15, label %.critedge, label %16

16:                                               ; preds = %11
  %17 = udiv i64 9223372036854775807, %6
  %18 = icmp ugt i64 %14, %17
  br i1 %18, label %.critedge, label %20, !prof !8

.critedge:                                        ; preds = %11, %16
  %19 = call i32 (ptr, ptr, ...) @luaL_error(ptr noundef %0, ptr noundef nonnull @.str.58) #12
  br label %35

20:                                               ; preds = %16
  %21 = mul i64 %14, %6
  %22 = sub i64 %21, %13
  call void @llvm.lifetime.start.p0(i64 1056, ptr nonnull %4) #12
  %23 = call ptr @luaL_buffinitsize(ptr noundef %0, ptr noundef nonnull %4, i64 noundef %22) #12
  %.not26 = icmp eq i64 %6, 1
  br i1 %.not26, label %._crit_edge, label %.lr.ph

.lr.ph:                                           ; preds = %20, %32
  %.in = phi i64 [ %24, %32 ], [ %6, %20 ]
  %.025 = phi ptr [ %.1, %32 ], [ %23, %20 ]
  %24 = add nsw i64 %.in, -1
  %25 = load i64, ptr %2, align 8, !tbaa !4
  call void @llvm.memcpy.p0.p0.i64(ptr align 1 %.025, ptr align 1 %5, i64 %25, i1 false)
  %26 = load i64, ptr %2, align 8, !tbaa !4
  %27 = getelementptr inbounds nuw i8, ptr %.025, i64 %26
  %28 = load i64, ptr %3, align 8, !tbaa !4
  %.not = icmp eq i64 %28, 0
  br i1 %.not, label %32, label %29

29:                                               ; preds = %.lr.ph
  call void @llvm.memcpy.p0.p0.i64(ptr align 1 %27, ptr align 1 %7, i64 %28, i1 false)
  %30 = load i64, ptr %3, align 8, !tbaa !4
  %31 = getelementptr inbounds nuw i8, ptr %27, i64 %30
  br label %32

32:                                               ; preds = %29, %.lr.ph
  %.1 = phi ptr [ %31, %29 ], [ %27, %.lr.ph ]
  %33 = icmp samesign ugt i64 %.in, 2
  br i1 %33, label %.lr.ph, label %._crit_edge

._crit_edge:                                      ; preds = %32, %20
  %.0.lcssa = phi ptr [ %23, %20 ], [ %.1, %32 ]
  %34 = load i64, ptr %2, align 8, !tbaa !4
  call void @llvm.memcpy.p0.p0.i64(ptr align 1 %.0.lcssa, ptr align 1 %5, i64 %34, i1 false)
  call void @luaL_pushresultsize(ptr noundef nonnull %4, i64 noundef %22) #12
  call void @llvm.lifetime.end.p0(i64 1056, ptr nonnull %4) #12
  br label %35

35:                                               ; preds = %9, %._crit_edge, %.critedge
  %.020 = phi i32 [ %19, %.critedge ], [ 1, %._crit_edge ], [ 1, %9 ]
  call void @llvm.lifetime.end.p0(i64 8, ptr nonnull %3) #12
  call void @llvm.lifetime.end.p0(i64 8, ptr nonnull %2) #12
  ret i32 %.020
}